target datalayout = "e-m:e-p270:32:32-p271:32:32-p272:64:64-i64:64-i128:128-f80:128-n8:16:32:64-S128"
target triple = "x86_64-pc-linux-gnu"

%class.ConvexVolumeTool = type { %struct.SampleTool, ptr, i32, float, float, float, [36 x float], i32, [12 x i32], i32 }
%struct.SampleTool = type { ptr }
%class.Sample = type { ptr, ptr, ptr, ptr, ptr, i8, float, float, float, float, float, float, float, float, float, float, float, float, float, i32, i8, i8, i8, ptr, [9 x ptr], ptr, %class.SampleDebugDraw }
%class.SampleDebugDraw = type { %class.DebugDrawGL }
%class.DebugDrawGL = type { %struct.duDebugDraw }
%struct.duDebugDraw = type { ptr }

; Function Attrs: mustprogress nounwind uwtable
define linkonce_odr dso_local noundef i32 @_Z6duRGBAiiii(i32 noundef %0, i32 noundef %1, i32 noundef %2, i32 noundef %3) #0 comdat {
  %5 = alloca i32, align 4
  %6 = alloca i32, align 4
  %7 = alloca i32, align 4
  %8 = alloca i32, align 4
  store i32 %0, ptr %5, align 4
  store i32 %1, ptr %6, align 4
  store i32 %2, ptr %7, align 4
  store i32 %3, ptr %8, align 4
  %9 = load i32, ptr %5, align 4
  %10 = load i32, ptr %6, align 4
  %11 = shl i32 %10, 8
  %12 = or i32 %9, %11
  %13 = load i32, ptr %7, align 4
  %14 = shl i32 %13, 16
  %15 = or i32 %12, %14
  %16 = load i32, ptr %8, align 4
  %17 = shl i32 %16, 24
  %18 = or i32 %15, %17
  ret i32 %18
}

; Function Attrs: mustprogress nounwind uwtable
define linkonce_odr dso_local noundef float @_Z5rcMinIfET_S0_S0_(float noundef %0, float noundef %1) #0 comdat {
  %3 = alloca float, align 4
  %4 = alloca float, align 4
  store float %0, ptr %3, align 4
  store float %1, ptr %4, align 4
  %5 = load float, ptr %3, align 4
  %6 = load float, ptr %4, align 4
  %7 = fcmp olt float %5, %6
  br i1 %7, label %8, label %10

8:                                                ; preds = %2
  %9 = load float, ptr %3, align 4
  br label %12

10:                                               ; preds = %2
  %11 = load float, ptr %4, align 4
  br label %12

12:                                               ; preds = %10, %8
  %13 = phi float [ %9, %8 ], [ %11, %10 ]
  ret float %13
}

; Function Attrs: mustprogress nounwind uwtable
define linkonce_odr dso_local noundef nonnull align 8 dereferenceable(8) ptr @_ZN6Sample12getDebugDrawEv(ptr noundef nonnull align 8 dereferenceable(200) %0) #0 comdat align 2 {
  %2 = alloca ptr, align 8
  store ptr %0, ptr %2, align 8
  %3 = load ptr, ptr %2, align 8
  %4 = getelementptr inbounds %class.Sample, ptr %3, i32 0, i32 26
  ret ptr %4
}

; Function Attrs: mustprogress uwtable
define dso_local void @_ZN16ConvexVolumeTool12handleRenderEv(ptr noundef nonnull align 8 dereferenceable(232) %0) unnamed_addr #1 align 2 {
  %2 = alloca ptr, align 8
  %3 = alloca ptr, align 8
  %4 = alloca float, align 4
  %5 = alloca float, align 4
  %6 = alloca i32, align 4
  %7 = alloca i32, align 4
  %8 = alloca i32, align 4
  %9 = alloca i32, align 4
  %10 = alloca i32, align 4
  %11 = alloca ptr, align 8
  %12 = alloca ptr, align 8
  store ptr %0, ptr %2, align 8
  %13 = load ptr, ptr %2, align 8
  %14 = getelementptr inbounds %class.ConvexVolumeTool, ptr %13, i32 0, i32 1
  %15 = load ptr, ptr %14, align 8
  %16 = call noundef nonnull align 8 dereferenceable(8) ptr @_ZN6Sample12getDebugDrawEv(ptr noundef nonnull align 8 dereferenceable(200) %15)
  store ptr %16, ptr %3, align 8
  store float 0x47EFFFFFE0000000, ptr %4, align 4
  store float 0.000000e+00, ptr %5, align 4
  store i32 0, ptr %6, align 4
  br label %17

17:                                               ; preds = %32, %1
  %18 = load i32, ptr %6, align 4
  %19 = getelementptr inbounds %class.ConvexVolumeTool, ptr %13, i32 0, i32 7
  %20 = load i32, ptr %19, align 8
  %21 = icmp slt i32 %18, %20
  br i1 %21, label %22, label %35

22:                                               ; preds = %17
  %23 = load float, ptr %4, align 4
  %24 = getelementptr inbounds %class.ConvexVolumeTool, ptr %13, i32 0, i32 6
  %25 = load i32, ptr %6, align 4
  %26 = mul nsw i32 %25, 3
  %27 = add nsw i32 %26, 1
  %28 = sext i32 %27 to i64
  %29 = getelementptr inbounds [36 x float], ptr %24, i64 0, i64 %28
  %30 = load float, ptr %29, align 4
  %31 = call noundef float @_Z5rcMinIfET_S0_S0_(float noundef %23, float noundef %30)
  store float %31, ptr %4, align 4
  br label %32

32:                                               ; preds = %22
  %33 = load i32, ptr %6, align 4
  %34 = add nsw i32 %33, 1
  store i32 %34, ptr %6, align 4
  br label %17, !llvm.loop !13

35:                                               ; preds = %17
  %36 = getelementptr inbounds %class.ConvexVolumeTool, ptr %13, i32 0, i32 5
  %37 = load float, ptr %36, align 4
  %38 = load float, ptr %4, align 4
  %39 = fsub float %38, %37
  store float %39, ptr %4, align 4
  %40 = load float, ptr %4, align 4
  %41 = getelementptr inbounds %class.ConvexVolumeTool, ptr %13, i32 0, i32 4
  %42 = load float, ptr %41, align 8
  %43 = fadd float %40, %42
  store float %43, ptr %5, align 4
  %44 = load ptr, ptr %3, align 8
  %45 = load ptr, ptr %44, align 8
  %46 = getelementptr inbounds ptr, ptr %45, i64 4
  %47 = load ptr, ptr %46, align 8
  call void %47(ptr noundef nonnull align 8 dereferenceable(8) %44, i32 noundef 0, float noundef 4.000000e+00)
  store i32 0, ptr %7, align 4
  br label %48

48:                                               ; preds = %90, %35
  %49 = load i32, ptr %7, align 4
  %50 = getelementptr inbounds %class.ConvexVolumeTool, ptr %13, i32 0, i32 7
  %51 = load i32, ptr %50, align 8
  %52 = icmp slt i32 %49, %51
  br i1 %52, label %53, label %93

53:                                               ; preds = %48
  %54 = call noundef i32 @_Z6duRGBAiiii(i32 noundef 255, i32 noundef 255, i32 noundef 255, i32 noundef 255)
  store i32 %54, ptr %8, align 4
  %55 = load i32, ptr %7, align 4
  %56 = getelementptr inbounds %class.ConvexVolumeTool, ptr %13, i32 0, i32 7
  %57 = load i32, ptr %56, align 8
  %58 = sub nsw i32 %57, 1
  %59 = icmp eq i32 %55, %58
  br i1 %59, label %60, label %62

60:                                               ; preds = %53
  %61 = call noundef i32 @_Z6duRGBAiiii(i32 noundef 240, i32 noundef 32, i32 noundef 16, i32 noundef 255)
  store i32 %61, ptr %8, align 4
  br label %62

62:                                               ; preds = %60, %53
  %63 = load ptr, ptr %3, align 8
  %64 = getelementptr inbounds %class.ConvexVolumeTool, ptr %13, i32 0, i32 6
  %65 = load i32, ptr %7, align 4
  %66 = mul nsw i32 %65, 3
  %67 = add nsw i32 %66, 0
  %68 = sext i32 %67 to i64
  %69 = getelementptr inbounds [36 x float], ptr %64, i64 0, i64 %68
  %70 = load float, ptr %69, align 4
  %71 = getelementptr inbounds %class.ConvexVolumeTool, ptr %13, i32 0, i32 6
  %72 = load i32, ptr %7, align 4
  %73 = mul nsw i32 %72, 3
  %74 = add nsw i32 %73, 1
  %75 = sext i32 %74 to i64
  %76 = getelementptr inbounds [36 x float], ptr %71, i64 0, i64 %75
  %77 = load float, ptr %76, align 4
  %78 = fadd float %77, 0x3FB99999A0000000
  %79 = getelementptr inbounds %class.ConvexVolumeTool, ptr %13, i32 0, i32 6
  %80 = load i32, ptr %7, align 4
  %81 = mul nsw i32 %80, 3
  %82 = add nsw i32 %81, 2
  %83 = sext i32 %82 to i64
  %84 = getelementptr inbounds [36 x float], ptr %79, i64 0, i64 %83
  %85 = load float, ptr %84, align 4
  %86 = load i32, ptr %8, align 4
  %87 = load ptr, ptr %63, align 8
  %88 = getelementptr inbounds ptr, ptr %87, i64 6
  %89 = load ptr, ptr %88, align 8
  call void %89(ptr noundef nonnull align 8 dereferenceable(8) %63, float noundef %70, float noundef %78, float noundef %85, i32 noundef %86)
  br label %90

90:                                               ; preds = %62
  %91 = load i32, ptr %7, align 4
  %92 = add nsw i32 %91, 1
  store i32 %92, ptr %7, align 4
  br label %48, !llvm.loop !14

93:                                               ; preds = %48
  %94 = load ptr, ptr %3, align 8
  %95 = load ptr, ptr %94, align 8
  %96 = getelementptr inbounds ptr, ptr %95, i64 9
  %97 = load ptr, ptr %96, align 8
  call void %97(ptr noundef nonnull align 8 dereferenceable(8) %94)
  %98 = load ptr, ptr %3, align 8
  %99 = load ptr, ptr %98, align 8
  %100 = getelementptr inbounds ptr, ptr %99, i64 4
  %101 = load ptr, ptr %100, align 8
  call void %101(ptr noundef nonnull align 8 dereferenceable(8) %98, i32 noundef 1, float noundef 2.000000e+00)
  store i32 0, ptr %9, align 4
  %102 = getelementptr inbounds %class.ConvexVolumeTool, ptr %13, i32 0, i32 9
  %103 = load i32, ptr %102, align 4
  %104 = sub nsw i32 %103, 1
  store i32 %104, ptr %10, align 4
  br label %105

105:                                              ; preds = %201, %93
  %106 = load i32, ptr %9, align 4
  %107 = getelementptr inbounds %class.ConvexVolumeTool, ptr %13, i32 0, i32 9
  %108 = load i32, ptr %107, align 4
  %109 = icmp slt i32 %106, %108
  br i1 %109, label %110, label %204

110:                                              ; preds = %105
  %111 = getelementptr inbounds %class.ConvexVolumeTool, ptr %13, i32 0, i32 6
  %112 = getelementptr inbounds %class.ConvexVolumeTool, ptr %13, i32 0, i32 8
  %113 = load i32, ptr %10, align 4
  %114 = sext i32 %113 to i64
  %115 = getelementptr inbounds [12 x i32], ptr %112, i64 0, i64 %114
  %116 = load i32, ptr %115, align 4
  %117 = mul nsw i32 %116, 3
  %118 = sext i32 %117 to i64
  %119 = getelementptr inbounds [36 x float], ptr %111, i64 0, i64 %118
  store ptr %119, ptr %11, align 8
  %120 = getelementptr inbounds %class.ConvexVolumeTool, ptr %13, i32 0, i32 6
  %121 = getelementptr inbounds %class.ConvexVolumeTool, ptr %13, i32 0, i32 8
  %122 = load i32, ptr %9, align 4
  %123 = sext i32 %122 to i64
  %124 = getelementptr inbounds [12 x i32], ptr %121, i64 0, i64 %123
  %125 = load i32, ptr %124, align 4
  %126 = mul nsw i32 %125, 3
  %127 = sext i32 %126 to i64
  %128 = getelementptr inbounds [36 x float], ptr %120, i64 0, i64 %127
  store ptr %128, ptr %12, align 8
  %129 = load ptr, ptr %3, align 8
  %130 = load ptr, ptr %12, align 8
  %131 = getelementptr inbounds float, ptr %130, i64 0
  %132 = load float, ptr %131, align 4
  %133 = load float, ptr %4, align 4
  %134 = load ptr, ptr %12, align 8
  %135 = getelementptr inbounds float, ptr %134, i64 2
  %136 = load float, ptr %135, align 4
  %137 = call noundef i32 @_Z6duRGBAiiii(i32 noundef 255, i32 noundef 255, i32 noundef 255, i32 noundef 64)
  %138 = load ptr, ptr %129, align 8
  %139 = getelementptr inbounds ptr, ptr %138, i64 6
  %140 = load ptr, ptr %139, align 8
  call void %140(ptr noundef nonnull align 8 dereferenceable(8) %129, float noundef %132, float noundef %133, float noundef %136, i32 noundef %137)
  %141 = load ptr, ptr %3, align 8
  %142 = load ptr, ptr %11, align 8
  %143 = getelementptr inbounds float, ptr %142, i64 0
  %144 = load float, ptr %143, align 4
  %145 = load float, ptr %4, align 4
  %146 = load ptr, ptr %11, align 8
  %147 = getelementptr inbounds float, ptr %146, i64 2
  %148 = load float, ptr %147, align 4
  %149 = call noundef i32 @_Z6duRGBAiiii(i32 noundef 255, i32 noundef 255, i32 noundef 255, i32 noundef 64)
  %150 = load ptr, ptr %141, align 8
  %151 = getelementptr inbounds ptr, ptr %150, i64 6
  %152 = load ptr, ptr %151, align 8
  call void %152(ptr noundef nonnull align 8 dereferenceable(8) %141, float noundef %144, float noundef %145, float noundef %148, i32 noundef %149)
  %153 = load ptr, ptr %3, align 8
  %154 = load ptr, ptr %12, align 8
  %155 = getelementptr inbounds float, ptr %154, i64 0
  %156 = load float, ptr %155, align 4
  %157 = load float, ptr %5, align 4
  %158 = load ptr, ptr %12, align 8
  %159 = getelementptr inbounds float, ptr %158, i64 2
  %160 = load float, ptr %159, align 4
  %161 = call noundef i32 @_Z6duRGBAiiii(i32 noundef 255, i32 noundef 255, i32 noundef 255, i32 noundef 64)
  %162 = load ptr, ptr %153, align 8
  %163 = getelementptr inbounds ptr, ptr %162, i64 6
  %164 = load ptr, ptr %163, align 8
  call void %164(ptr noundef nonnull align 8 dereferenceable(8) %153, float noundef %156, float noundef %157, float noundef %160, i32 noundef %161)
  %165 = load ptr, ptr %3, align 8
  %166 = load ptr, ptr %11, align 8
  %167 = getelementptr inbounds float, ptr %166, i64 0
  %168 = load float, ptr %167, align 4
  %169 = load float, ptr %5, align 4
  %170 = load ptr, ptr %11, align 8
  %171 = getelementptr inbounds float, ptr %170, i64 2
  %172 = load float, ptr %171, align 4
  %173 = call noundef i32 @_Z6duRGBAiiii(i32 noundef 255, i32 noundef 255, i32 noundef 255, i32 noundef 64)
  %174 = load ptr, ptr %165, align 8
  %175 = getelementptr inbounds ptr, ptr %174, i64 6
  %176 = load ptr, ptr %175, align 8
  call void %176(ptr noundef nonnull align 8 dereferenceable(8) %165, float noundef %168, float noundef %169, float noundef %172, i32 noundef %173)
  %177 = load ptr, ptr %3, align 8
  %178 = load ptr, ptr %12, align 8
  %179 = getelementptr inbounds float, ptr %178, i64 0
  %180 = load float, ptr %179, align 4
  %181 = load float, ptr %4, align 4
  %182 = load ptr, ptr %12, align 8
  %183 = getelementptr inbounds float, ptr %182, i64 2
  %184 = load float, ptr %183, align 4
  %185 = call noundef i32 @_Z6duRGBAiiii(i32 noundef 255, i32 noundef 255, i32 noundef 255, i32 noundef 64)
  %186 = load ptr, ptr %177, align 8
  %187 = getelementptr inbounds ptr, ptr %186, i64 6
  %188 = load ptr, ptr %187, align 8
  call void %188(ptr noundef nonnull align 8 dereferenceable(8) %177, float noundef %180, float noundef %181, float noundef %184, i32 noundef %185)
  %189 = load ptr, ptr %3, align 8
  %190 = load ptr, ptr %12, align 8
  %191 = getelementptr inbounds float, ptr %190, i64 0
  %192 = load float, ptr %191, align 4
  %193 = load float, ptr %5, align 4
  %194 = load ptr, ptr %12, align 8
  %195 = getelementptr inbounds float, ptr %194, i64 2
  %196 = load float, ptr %195, align 4
  %197 = call noundef i32 @_Z6duRGBAiiii(i32 noundef 255, i32 noundef 255, i32 noundef 255, i32 noundef 64)
  %198 = load ptr, ptr %189, align 8
  %199 = getelementptr inbounds ptr, ptr %198, i64 6
  %200 = load ptr, ptr %199, align 8
  call void %200(ptr noundef nonnull align 8 dereferenceable(8) %189, float noundef %192, float noundef %193, float noundef %196, i32 noundef %197)
  br label %201

201:                                              ; preds = %110
  %202 = load i32, ptr %9, align 4
  %203 = add nsw i32 %202, 1
  store i32 %203, ptr %9, align 4
  store i32 %202, ptr %10, align 4
  br label %105, !llvm.loop !15

204:                                              ; preds = %105
  %205 = load ptr, ptr %3, align 8
  %206 = load ptr, ptr %205, align 8
  %207 = getelementptr inbounds ptr, ptr %206, i64 9
  %208 = load ptr, ptr %207, align 8
  call void %208(ptr noundef nonnull align 8 dereferenceable(8) %205)
  ret void
}