; Function Attrs: mustprogress uwtable
define dso_local void @_ZN16ConvexVolumeTool12handleRenderEv(ptr nocapture noundef nonnull readonly align 8 dereferenceable(232) %0) unnamed_addr #1 align 2 {
  %2 = getelementptr inbounds i8, ptr %0, i64 8
  %3 = load ptr, ptr %2, align 8
  %4 = getelementptr inbounds i8, ptr %3, i64 192
  %5 = getelementptr inbounds i8, ptr %0, i64 176
  %6 = load i32, ptr %5, align 8
  %7 = icmp sgt i32 %6, 0
  br i1 %7, label %.lr.ph, label %._crit_edge

.lr.ph:                                           ; preds = %1
  %8 = getelementptr inbounds i8, ptr %0, i64 32
  %wide.trip.count = zext nneg i32 %6 to i64
  br label %9

9:                                                ; preds = %.lr.ph, %9
  %indvars.iv = phi i64 [ 0, %.lr.ph ], [ %indvars.iv.next, %9 ]
  %.052 = phi float [ 0x47EFFFFFE0000000, %.lr.ph ], [ %15, %9 ]
  %10 = mul nuw nsw i64 %indvars.iv, 3
  %11 = add nuw nsw i64 %10, 1
  %12 = getelementptr inbounds [36 x float], ptr %8, i64 0, i64 %11
  %13 = load float, ptr %12, align 4
  %14 = fcmp olt float %.052, %13
  %15 = select i1 %14, float %.052, float %13
  %indvars.iv.next = add nuw nsw i64 %indvars.iv, 1
  %exitcond.not = icmp eq i64 %indvars.iv.next, %wide.trip.count
  br i1 %exitcond.not, label %._crit_edge, label %9, !llvm.loop !13

._crit_edge:                                      ; preds = %9, %1
  %.0.lcssa = phi float [ 0x47EFFFFFE0000000, %1 ], [ %15, %9 ]
  %16 = getelementptr inbounds i8, ptr %0, i64 28
  %17 = load float, ptr %16, align 4
  %18 = fsub float %.0.lcssa, %17
  %19 = getelementptr inbounds i8, ptr %0, i64 24
  %20 = load float, ptr %19, align 8
  %21 = fadd float %18, %20
  %22 = load ptr, ptr %4, align 8
  %23 = getelementptr inbounds i8, ptr %22, i64 32
  %24 = load ptr, ptr %23, align 8
  tail call void %24(ptr noundef nonnull align 8 dereferenceable(8) %4, i32 noundef 0, float noundef 4.000000e+00)
  %25 = load i32, ptr %5, align 8
  %26 = icmp sgt i32 %25, 0
  br i1 %26, label %.lr.ph55, label %._crit_edge56

.lr.ph55:                                         ; preds = %._crit_edge
  %27 = getelementptr inbounds i8, ptr %0, i64 32
  br label %28

28:                                               ; preds = %.lr.ph55, %28
  %indvars.iv63 = phi i64 [ 0, %.lr.ph55 ], [ %indvars.iv.next64, %28 ]
  %29 = phi i32 [ %25, %.lr.ph55 ], [ %46, %28 ]
  %30 = add nsw i32 %29, -1
  %31 = zext i32 %30 to i64
  %32 = icmp eq i64 %indvars.iv63, %31
  %spec.select = select i1 %32, i32 -15720208, i32 -1
  %33 = mul nuw nsw i64 %indvars.iv63, 3
  %34 = getelementptr inbounds [36 x float], ptr %27, i64 0, i64 %33
  %35 = load float, ptr %34, align 4
  %36 = add nuw nsw i64 %33, 1
  %37 = getelementptr inbounds [36 x float], ptr %27, i64 0, i64 %36
  %38 = load float, ptr %37, align 4
  %39 = fadd float %38, 0x3FB99999A0000000
  %40 = add nuw nsw i64 %33, 2
  %41 = getelementptr inbounds [36 x float], ptr %27, i64 0, i64 %40
  %42 = load float, ptr %41, align 4
  %43 = load ptr, ptr %4, align 8
  %44 = getelementptr inbounds i8, ptr %43, i64 48
  %45 = load ptr, ptr %44, align 8
  tail call void %45(ptr noundef nonnull align 8 dereferenceable(8) %4, float noundef %35, float noundef %39, float noundef %42, i32 noundef %spec.select)
  %indvars.iv.next64 = add nuw nsw i64 %indvars.iv63, 1
  %46 = load i32, ptr %5, align 8
  %47 = sext i32 %46 to i64
  %48 = icmp slt i64 %indvars.iv.next64, %47
  br i1 %48, label %28, label %._crit_edge56, !llvm.loop !14

._crit_edge56:                                    ; preds = %28, %._crit_edge
  %49 = load ptr, ptr %4, align 8
  %50 = getelementptr inbounds i8, ptr %49, i64 72
  %51 = load ptr, ptr %50, align 8
  tail call void %51(ptr noundef nonnull align 8 dereferenceable(8) %4)
  %52 = load ptr, ptr %4, align 8
  %53 = getelementptr inbounds i8, ptr %52, i64 32
  %54 = load ptr, ptr %53, align 8
  tail call void %54(ptr noundef nonnull align 8 dereferenceable(8) %4, i32 noundef 1, float noundef 2.000000e+00)
  %55 = getelementptr inbounds i8, ptr %0, i64 228
  %56 = load i32, ptr %55, align 4
  %57 = icmp sgt i32 %56, 0
  br i1 %57, label %.lr.ph60, label %._crit_edge61

.lr.ph60:                                         ; preds = %._crit_edge56
  %58 = add nsw i32 %56, -1
  %59 = getelementptr inbounds i8, ptr %0, i64 32
  %60 = getelementptr inbounds i8, ptr %0, i64 180
  br label %61

61:                                               ; preds = %.lr.ph60, %61
  %indvars.iv66 = phi i64 [ 0, %.lr.ph60 ], [ %indvars.iv.next67, %61 ]
  %.04658 = phi i32 [ %58, %.lr.ph60 ], [ %108, %61 ]
  %62 = sext i32 %.04658 to i64
  %63 = getelementptr inbounds [12 x i32], ptr %60, i64 0, i64 %62
  %64 = load i32, ptr %63, align 4
  %65 = mul nsw i32 %64, 3
  %66 = sext i32 %65 to i64
  %67 = getelementptr inbounds [36 x float], ptr %59, i64 0, i64 %66
  %68 = getelementptr inbounds [12 x i32], ptr %60, i64 0, i64 %indvars.iv66
  %69 = load i32, ptr %68, align 4
  %70 = mul nsw i32 %69, 3
  %71 = sext i32 %70 to i64
  %72 = getelementptr inbounds [36 x float], ptr %59, i64 0, i64 %71
  %73 = load float, ptr %72, align 4
  %74 = getelementptr inbounds i8, ptr %72, i64 8
  %75 = load float, ptr %74, align 4
  %76 = load ptr, ptr %4, align 8
  %77 = getelementptr inbounds i8, ptr %76, i64 48
  %78 = load ptr, ptr %77, align 8
  tail call void %78(ptr noundef nonnull align 8 dereferenceable(8) %4, float noundef %73, float noundef %18, float noundef %75, i32 noundef 1090519039)
  %79 = load float, ptr %67, align 4
  %80 = getelementptr inbounds i8, ptr %67, i64 8
  %81 = load float, ptr %80, align 4
  %82 = load ptr, ptr %4, align 8
  %83 = getelementptr inbounds i8, ptr %82, i64 48
  %84 = load ptr, ptr %83, align 8
  tail call void %84(ptr noundef nonnull align 8 dereferenceable(8) %4, float noundef %79, float noundef %18, float noundef %81, i32 noundef 1090519039)
  %85 = load float, ptr %72, align 4
  %86 = load float, ptr %74, align 4
  %87 = load ptr, ptr %4, align 8
  %88 = getelementptr inbounds i8, ptr %87, i64 48
  %89 = load ptr, ptr %88, align 8
  tail call void %89(ptr noundef nonnull align 8 dereferenceable(8) %4, float noundef %85, float noundef %21, float noundef %86, i32 noundef 1090519039)
  %90 = load float, ptr %67, align 4
  %91 = load float, ptr %80, align 4
  %92 = load ptr, ptr %4, align 8
  %93 = getelementptr inbounds i8, ptr %92, i64 48
  %94 = load ptr, ptr %93, align 8
  tail call void %94(ptr noundef nonnull align 8 dereferenceable(8) %4, float noundef %90, float noundef %21, float noundef %91, i32 noundef 1090519039)
  %95 = load float, ptr %72, align 4
  %96 = load float, ptr %74, align 4
  %97 = load ptr, ptr %4, align 8
  %98 = getelementptr inbounds i8, ptr %97, i64 48
  %99 = load ptr, ptr %98, align 8
  tail call void %99(ptr noundef nonnull align 8 dereferenceable(8) %4, float noundef %95, float noundef %18, float noundef %96, i32 noundef 1090519039)
  %100 = load float, ptr %72, align 4
  %101 = load float, ptr %74, align 4
  %102 = load ptr, ptr %4, align 8
  %103 = getelementptr inbounds i8, ptr %102, i64 48
  %104 = load ptr, ptr %103, align 8
  tail call void %104(ptr noundef nonnull align 8 dereferenceable(8) %4, float noundef %100, float noundef %21, float noundef %101, i32 noundef 1090519039)
  %indvars.iv.next67 = add nuw nsw i64 %indvars.iv66, 1
  %105 = load i32, ptr %55, align 4
  %106 = sext i32 %105 to i64
  %107 = icmp slt i64 %indvars.iv.next67, %106
  %108 = trunc i64 %indvars.iv66 to i32
  br i1 %107, label %61, label %._crit_edge61, !llvm.loop !15

._crit_edge61:                                    ; preds = %61, %._crit_edge56
  %109 = load ptr, ptr %4, align 8
  %110 = getelementptr inbounds i8, ptr %109, i64 72
  %111 = load ptr, ptr %110, align 8
  tail call void %111(ptr noundef nonnull align 8 dereferenceable(8) %4)
  ret void
}